target datalayout = "e-m:e-p270:32:32-p271:32:32-p272:64:64-i64:64-i128:128-f80:128-n8:16:32:64-S128"
target triple = "x86_64-pc-linux-gnu"

%struct.slurmctld_lock_t = type { i32, i32, i32, i32, i32 }
%struct.part_record = type { i32, ptr, ptr, ptr, ptr, ptr, ptr, i32, ptr, ptr, ptr, ptr, ptr, i32, i64, i32, ptr, ptr, ptr, ptr, ptr, i32, i32, ptr, i32, i32, i64, i32, i32, i16, i32, i32, i32, i32, ptr, ptr, ptr, ptr, ptr, double, i16, i16, i16, i16, ptr, ptr, i16, i16, i32, i16, i32, i32, i32, i32, i16, ptr, ptr, ptr }

@__const._resize_qos.part_write_lock = private unnamed_addr constant %struct.slurmctld_lock_t { i32 0, i32 0, i32 0, i32 2, i32 0 }, align 4
@part_list = external global ptr, align 8
@.str.171 = private unnamed_addr constant [24 x i8] c"got count for %s of %ld\00", align 1
@.str.172 = private unnamed_addr constant [24 x i8] c"now count for %s of %ld\00", align 1

; Function Attrs: nounwind uwtable
define internal void @_resize_qos() #0 {
  %1 = alloca ptr, align 8
  %2 = alloca ptr, align 8
  %3 = alloca %struct.slurmctld_lock_t, align 8
  call void @llvm.lifetime.start.p0(i64 8, ptr %1) #11
  call void @llvm.lifetime.start.p0(i64 8, ptr %2) #11
  call void @llvm.lifetime.start.p0(i64 20, ptr %3) #11
  call void @llvm.memcpy.p0.p0.i64(ptr align 4 %3, ptr align 4 @__const._resize_qos.part_write_lock, i64 20, i1 false)
  call void @lock_slurmctld(ptr noundef byval(%struct.slurmctld_lock_t) align 8 %3)
  %4 = load ptr, ptr @part_list, align 8
  %5 = icmp ne ptr %4, null
  br i1 %5, label %6, label %72

6:                                                ; preds = %0
  %7 = load ptr, ptr @part_list, align 8
  %8 = call ptr @list_iterator_create(ptr noundef %7)
  store ptr %8, ptr %1, align 8
  br label %9

9:                                                ; preds = %69, %6
  %10 = load ptr, ptr %1, align 8
  %11 = call ptr @list_next(ptr noundef %10)
  store ptr %11, ptr %2, align 8
  %12 = icmp ne ptr %11, null
  br i1 %12, label %13, label %70

13:                                               ; preds = %9
  %14 = load ptr, ptr %2, align 8
  %15 = getelementptr inbounds nuw %struct.part_record, ptr %14, i32 0, i32 8
  %16 = load ptr, ptr %15, align 8
  %17 = icmp ne ptr %16, null
  br i1 %17, label %18, label %58

18:                                               ; preds = %13
  br label %19

19:                                               ; preds = %18
  br label %20

20:                                               ; preds = %19
  %21 = call i32 @get_log_level()
  %22 = icmp sge i32 %21, 3
  br i1 %22, label %23, label %31

23:                                               ; preds = %20
  %24 = load ptr, ptr %2, align 8
  %25 = getelementptr inbounds nuw %struct.part_record, ptr %24, i32 0, i32 34
  %26 = load ptr, ptr %25, align 8
  %27 = load ptr, ptr %2, align 8
  %28 = getelementptr inbounds nuw %struct.part_record, ptr %27, i32 0, i32 9
  %29 = load ptr, ptr %28, align 8
  %30 = call i64 @bit_size(ptr noundef %29)
  call void (i32, ptr, ...) @log_var(i32 noundef 3, ptr noundef @.str.171, ptr noundef %26, i64 noundef %30)
  br label %31

31:                                               ; preds = %23, %20
  br label %32

32:                                               ; preds = %31
  br label %33

33:                                               ; preds = %32
  br label %34

34:                                               ; preds = %33
  br label %35

35:                                               ; preds = %34
  %36 = load ptr, ptr %2, align 8
  %37 = getelementptr inbounds nuw %struct.part_record, ptr %36, i32 0, i32 8
  %38 = load ptr, ptr %37, align 8
  %39 = load ptr, ptr %2, align 8
  %40 = getelementptr inbounds nuw %struct.part_record, ptr %39, i32 0, i32 9
  call void @qos_list_build(ptr noundef %38, ptr noundef %40)
  br label %41

41:                                               ; preds = %35
  br label %42

42:                                               ; preds = %41
  %43 = call i32 @get_log_level()
  %44 = icmp sge i32 %43, 3
  br i1 %44, label %45, label %53

45:                                               ; preds = %42
  %46 = load ptr, ptr %2, align 8
  %47 = getelementptr inbounds nuw %struct.part_record, ptr %46, i32 0, i32 34
  %48 = load ptr, ptr %47, align 8
  %49 = load ptr, ptr %2, align 8
  %50 = getelementptr inbounds nuw %struct.part_record, ptr %49, i32 0, i32 9
  %51 = load ptr, ptr %50, align 8
  %52 = call i64 @bit_size(ptr noundef %51)
  call void (i32, ptr, ...) @log_var(i32 noundef 3, ptr noundef @.str.172, ptr noundef %48, i64 noundef %52)
  br label %53

53:                                               ; preds = %45, %42
  br label %54

54:                                               ; preds = %53
  br label %55

55:                                               ; preds = %54
  br label %56

56:                                               ; preds = %55
  br label %57

57:                                               ; preds = %56
  br label %58

58:                                               ; preds = %57, %13
  %59 = load ptr, ptr %2, align 8
  %60 = getelementptr inbounds nuw %struct.part_record, ptr %59, i32 0, i32 19
  %61 = load ptr, ptr %60, align 8
  %62 = icmp ne ptr %61, null
  br i1 %62, label %63, label %69

63:                                               ; preds = %58
  %64 = load ptr, ptr %2, align 8
  %65 = getelementptr inbounds nuw %struct.part_record, ptr %64, i32 0, i32 19
  %66 = load ptr, ptr %65, align 8
  %67 = load ptr, ptr %2, align 8
  %68 = getelementptr inbounds nuw %struct.part_record, ptr %67, i32 0, i32 20
  call void @qos_list_build(ptr noundef %66, ptr noundef %68)
  br label %69

69:                                               ; preds = %63, %58
  br label %9, !llvm.loop !30

70:                                               ; preds = %9
  %71 = load ptr, ptr %1, align 8
  call void @list_iterator_destroy(ptr noundef %71)
  br label %72

72:                                               ; preds = %70, %0
  call void @unlock_slurmctld(ptr noundef byval(%struct.slurmctld_lock_t) align 8 %3)
  call void @llvm.lifetime.end.p0(i64 20, ptr %3) #11
  call void @llvm.lifetime.end.p0(i64 8, ptr %2) #11
  call void @llvm.lifetime.end.p0(i64 8, ptr %1) #11
  ret void
}