; Function Attrs: nounwind uwtable
define internal void @_resize_qos() #6 {
  tail call void @lock_slurmctld(ptr noundef nonnull byval(%struct.slurmctld_lock_t) align 8 @__const._remove_qos.part_write_lock) #19
  %1 = load ptr, ptr @part_list, align 8
  %.not = icmp eq ptr %1, null
  br i1 %.not, label %34, label %2

2:                                                ; preds = %0
  %3 = tail call ptr @list_iterator_create(ptr noundef nonnull %1) #19
  %4 = tail call ptr @list_next(ptr noundef %3) #19
  %.not1417 = icmp eq ptr %4, null
  br i1 %.not1417, label %._crit_edge, label %.lr.ph

.lr.ph:                                           ; preds = %2, %32
  %5 = phi ptr [ %33, %32 ], [ %4, %2 ]
  %6 = getelementptr inbounds nuw i8, ptr %5, i64 64
  %7 = load ptr, ptr %6, align 8
  %.not15 = icmp eq ptr %7, null
  br i1 %.not15, label %27, label %8

8:                                                ; preds = %.lr.ph
  %9 = tail call i32 @get_log_level() #19
  %10 = icmp sgt i32 %9, 2
  br i1 %10, label %11, label %17

11:                                               ; preds = %8
  %12 = getelementptr inbounds nuw i8, ptr %5, i64 232
  %13 = load ptr, ptr %12, align 8
  %14 = getelementptr inbounds nuw i8, ptr %5, i64 72
  %15 = load ptr, ptr %14, align 8
  %16 = tail call i64 @bit_size(ptr noundef %15) #19
  tail call void (i32, ptr, ...) @log_var(i32 noundef 3, ptr noundef nonnull @.str.171, ptr noundef %13, i64 noundef %16) #19
  br label %17

17:                                               ; preds = %11, %8
  %18 = load ptr, ptr %6, align 8
  %19 = getelementptr inbounds nuw i8, ptr %5, i64 72
  tail call void @qos_list_build(ptr noundef %18, ptr noundef nonnull %19) #19
  %20 = tail call i32 @get_log_level() #19
  %21 = icmp sgt i32 %20, 2
  br i1 %21, label %22, label %27

22:                                               ; preds = %17
  %23 = getelementptr inbounds nuw i8, ptr %5, i64 232
  %24 = load ptr, ptr %23, align 8
  %25 = load ptr, ptr %19, align 8
  %26 = tail call i64 @bit_size(ptr noundef %25) #19
  tail call void (i32, ptr, ...) @log_var(i32 noundef 3, ptr noundef nonnull @.str.172, ptr noundef %24, i64 noundef %26) #19
  br label %27

27:                                               ; preds = %17, %22, %.lr.ph
  %28 = getelementptr inbounds nuw i8, ptr %5, i64 152
  %29 = load ptr, ptr %28, align 8
  %.not16 = icmp eq ptr %29, null
  br i1 %.not16, label %32, label %30

30:                                               ; preds = %27
  %31 = getelementptr inbounds nuw i8, ptr %5, i64 160
  tail call void @qos_list_build(ptr noundef nonnull %29, ptr noundef nonnull %31) #19
  br label %32

32:                                               ; preds = %30, %27
  %33 = tail call ptr @list_next(ptr noundef %3) #19
  %.not14 = icmp eq ptr %33, null
  br i1 %.not14, label %._crit_edge, label %.lr.ph, !llvm.loop !35

._crit_edge:                                      ; preds = %32, %2
  tail call void @list_iterator_destroy(ptr noundef %3) #19
  br label %34

34:                                               ; preds = %._crit_edge, %0
  tail call void @unlock_slurmctld(ptr noundef nonnull byval(%struct.slurmctld_lock_t) align 8 @__const._remove_qos.part_write_lock) #19
  ret void
}